target datalayout = "e-m:e-p270:32:32-p271:32:32-p272:64:64-i64:64-i128:128-f80:128-n8:16:32:64-S128"
target triple = "x86_64-unknown-linux-gnu"

%struct.QEnumLookup = type { ptr, ptr, i32 }
%struct.DriveBackup = type { ptr, ptr, i32, i8, i64, ptr, i8, i32, i8, i8, i8, i32, i8, i32, i8, i8, i8, i8, ptr, ptr, ptr, ptr, i8, i32 }

@.str.10 = private unnamed_addr constant [7 x i8] c"format\00", align 1
@NewImageMode_lookup = external constant %struct.QEnumLookup, align 8
@.str.189 = private unnamed_addr constant [5 x i8] c"mode\00", align 1
@.str.204 = private unnamed_addr constant [7 x i8] c"target\00", align 1

; Function Attrs: nounwind sspstrong uwtable
define dso_local zeroext i1 @visit_type_NewImageMode(ptr noundef %v, ptr noundef %name, ptr noundef %obj, ptr noundef %errp) #0 {
entry:
  %v.addr = alloca ptr, align 8
  %name.addr = alloca ptr, align 8
  %obj.addr = alloca ptr, align 8
  %errp.addr = alloca ptr, align 8
  %value = alloca i32, align 4
  %ok = alloca i8, align 1
  store ptr %v, ptr %v.addr, align 8
  store ptr %name, ptr %name.addr, align 8
  store ptr %obj, ptr %obj.addr, align 8
  store ptr %errp, ptr %errp.addr, align 8
  %0 = load ptr, ptr %obj.addr, align 8
  %1 = load i32, ptr %0, align 4
  store i32 %1, ptr %value, align 4
  %2 = load ptr, ptr %v.addr, align 8
  %3 = load ptr, ptr %name.addr, align 8
  %4 = load ptr, ptr %errp.addr, align 8
  %call = call zeroext i1 @visit_type_enum(ptr noundef %2, ptr noundef %3, ptr noundef %value, ptr noundef @NewImageMode_lookup, ptr noundef %4)
  %frombool = zext i1 %call to i8
  store i8 %frombool, ptr %ok, align 1
  %5 = load i32, ptr %value, align 4
  %6 = load ptr, ptr %obj.addr, align 8
  store i32 %5, ptr %6, align 4
  %7 = load i8, ptr %ok, align 1
  %tobool = trunc i8 %7 to i1
  ret i1 %tobool
}

; Function Attrs: nounwind sspstrong uwtable
define dso_local zeroext i1 @visit_type_DriveBackup_members(ptr noundef %v, ptr noundef %obj, ptr noundef %errp) #0 {
entry:
  %retval = alloca i1, align 1
  %v.addr = alloca ptr, align 8
  %obj.addr = alloca ptr, align 8
  %errp.addr = alloca ptr, align 8
  %has_format = alloca i8, align 1
  store ptr %v, ptr %v.addr, align 8
  store ptr %obj, ptr %obj.addr, align 8
  store ptr %errp, ptr %errp.addr, align 8
  %0 = load ptr, ptr %obj.addr, align 8
  %format = getelementptr inbounds %struct.DriveBackup, ptr %0, i32 0, i32 21
  %1 = load ptr, ptr %format, align 8
  %tobool = icmp ne ptr %1, null
  %lnot = xor i1 %tobool, true
  %lnot1 = xor i1 %lnot, true
  %frombool = zext i1 %lnot1 to i8
  store i8 %frombool, ptr %has_format, align 1
  %2 = load ptr, ptr %v.addr, align 8
  %3 = load ptr, ptr %obj.addr, align 8
  %4 = load ptr, ptr %errp.addr, align 8
  %call = call zeroext i1 @visit_type_BackupCommon_members(ptr noundef %2, ptr noundef %3, ptr noundef %4)
  br i1 %call, label %if.end, label %if.then

if.then:                                          ; preds = %entry
  store i1 false, ptr %retval, align 1
  br label %return

if.end:                                           ; preds = %entry
  %5 = load ptr, ptr %v.addr, align 8
  %6 = load ptr, ptr %obj.addr, align 8
  %target = getelementptr inbounds %struct.DriveBackup, ptr %6, i32 0, i32 20
  %7 = load ptr, ptr %errp.addr, align 8
  %call2 = call zeroext i1 @visit_type_str(ptr noundef %5, ptr noundef @.str.204, ptr noundef %target, ptr noundef %7)
  br i1 %call2, label %if.end4, label %if.then3

if.then3:                                         ; preds = %if.end
  store i1 false, ptr %retval, align 1
  br label %return

if.end4:                                          ; preds = %if.end
  %8 = load ptr, ptr %v.addr, align 8
  %call5 = call zeroext i1 @visit_optional(ptr noundef %8, ptr noundef @.str.10, ptr noundef %has_format)
  br i1 %call5, label %if.then6, label %if.end11

if.then6:                                         ; preds = %if.end4
  %9 = load ptr, ptr %v.addr, align 8
  %10 = load ptr, ptr %obj.addr, align 8
  %format7 = getelementptr inbounds %struct.DriveBackup, ptr %10, i32 0, i32 21
  %11 = load ptr, ptr %errp.addr, align 8
  %call8 = call zeroext i1 @visit_type_str(ptr noundef %9, ptr noundef @.str.10, ptr noundef %format7, ptr noundef %11)
  br i1 %call8, label %if.end10, label %if.then9

if.then9:                                         ; preds = %if.then6
  store i1 false, ptr %retval, align 1
  br label %return

if.end10:                                         ; preds = %if.then6
  br label %if.end11

if.end11:                                         ; preds = %if.end10, %if.end4
  %12 = load ptr, ptr %v.addr, align 8
  %13 = load ptr, ptr %obj.addr, align 8
  %has_mode = getelementptr inbounds %struct.DriveBackup, ptr %13, i32 0, i32 22
  %call12 = call zeroext i1 @visit_optional(ptr noundef %12, ptr noundef @.str.189, ptr noundef %has_mode)
  br i1 %call12, label %if.then13, label %if.end17

if.then13:                                        ; preds = %if.end11
  %14 = load ptr, ptr %v.addr, align 8
  %15 = load ptr, ptr %obj.addr, align 8
  %mode = getelementptr inbounds %struct.DriveBackup, ptr %15, i32 0, i32 23
  %16 = load ptr, ptr %errp.addr, align 8
  %call14 = call zeroext i1 @visit_type_NewImageMode(ptr noundef %14, ptr noundef @.str.189, ptr noundef %mode, ptr noundef %16)
  br i1 %call14, label %if.end16, label %if.then15

if.then15:                                        ; preds = %if.then13
  store i1 false, ptr %retval, align 1
  br label %return

if.end16:                                         ; preds = %if.then13
  br label %if.end17

if.end17:                                         ; preds = %if.end16, %if.end11
  store i1 true, ptr %retval, align 1
  br label %return

return:                                           ; preds = %if.end17, %if.then15, %if.then9, %if.then3, %if.then
  %17 = load i1, ptr %retval, align 1
  ret i1 %17
}