; Function Attrs: nounwind sspstrong uwtable
define dso_local noundef zeroext i1 @visit_type_DriveBackup_members(ptr noundef %v, ptr noundef %obj, ptr noundef %errp) local_unnamed_addr #0 {
entry:
  %value.i = alloca i32, align 4
  %has_format = alloca i8, align 1
  %format = getelementptr inbounds nuw i8, ptr %obj, i64 96
  %0 = load ptr, ptr %format, align 8
  %tobool = icmp ne ptr %0, null
  %frombool = zext i1 %tobool to i8
  store i8 %frombool, ptr %has_format, align 1
  %call = tail call zeroext i1 @visit_type_BackupCommon_members(ptr noundef %v, ptr noundef %obj, ptr noundef %errp)
  br i1 %call, label %if.end, label %return

if.end:                                           ; preds = %entry
  %target = getelementptr inbounds nuw i8, ptr %obj, i64 88
  %call2 = tail call zeroext i1 @visit_type_str(ptr noundef %v, ptr noundef nonnull @.str.204, ptr noundef nonnull %target, ptr noundef %errp) #5
  br i1 %call2, label %if.end4, label %return

if.end4:                                          ; preds = %if.end
  %call5 = call zeroext i1 @visit_optional(ptr noundef %v, ptr noundef nonnull @.str.10, ptr noundef nonnull %has_format) #5
  br i1 %call5, label %if.then6, label %if.end11

if.then6:                                         ; preds = %if.end4
  %call8 = call zeroext i1 @visit_type_str(ptr noundef %v, ptr noundef nonnull @.str.10, ptr noundef nonnull %format, ptr noundef %errp) #5
  br i1 %call8, label %if.end11, label %return

if.end11:                                         ; preds = %if.then6, %if.end4
  %has_mode = getelementptr inbounds nuw i8, ptr %obj, i64 104
  %call12 = call zeroext i1 @visit_optional(ptr noundef %v, ptr noundef nonnull @.str.189, ptr noundef nonnull %has_mode) #5
  br i1 %call12, label %if.then13, label %if.end17

if.then13:                                        ; preds = %if.end11
  %mode = getelementptr inbounds nuw i8, ptr %obj, i64 108
  call void @llvm.lifetime.start.p0(i64 4, ptr nonnull %value.i)
  %1 = load i32, ptr %mode, align 4
  store i32 %1, ptr %value.i, align 4
  %call.i = call zeroext i1 @visit_type_enum(ptr noundef %v, ptr noundef nonnull @.str.189, ptr noundef nonnull %value.i, ptr noundef nonnull @NewImageMode_lookup, ptr noundef %errp) #5
  %2 = load i32, ptr %value.i, align 4
  store i32 %2, ptr %mode, align 4
  call void @llvm.lifetime.end.p0(i64 4, ptr nonnull %value.i)
  br i1 %call.i, label %if.end17, label %return

if.end17:                                         ; preds = %if.then13, %if.end11
  br label %return

return:                                           ; preds = %if.then13, %if.then6, %if.end, %entry, %if.end17
  %retval.0 = phi i1 [ true, %if.end17 ], [ false, %entry ], [ false, %if.end ], [ false, %if.then6 ], [ false, %if.then13 ]
  ret i1 %retval.0
}